; Function Attrs: nounwind sspstrong uwtable
define internal i64 @lazy_take_size(i64 noundef %0, i64 noundef %1) #0 {
  %3 = load i64, ptr @id_arguments, align 8, !tbaa !7
  %4 = tail call i64 @rb_ivar_get(i64 noundef %0, i64 noundef %3) #18
  %5 = inttoptr i64 %4 to ptr
  %6 = load i64, ptr %5, align 8, !tbaa !21
  %7 = and i64 %6, 8192
  %.not.i.i = icmp eq i64 %7, 0
  br i1 %.not.i.i, label %10, label %8

8:                                                ; preds = %2
  %9 = getelementptr inbounds nuw i8, ptr %5, i64 16
  br label %RARRAY_AREF.exit

10:                                               ; preds = %2
  %11 = getelementptr inbounds nuw i8, ptr %5, i64 32
  %12 = load ptr, ptr %11, align 8, !tbaa !44
  br label %RARRAY_AREF.exit

RARRAY_AREF.exit:                                 ; preds = %8, %10
  %.0.i.i = phi ptr [ %9, %8 ], [ %12, %10 ]
  %13 = load i64, ptr %.0.i.i, align 8, !tbaa !7
  %14 = and i64 %13, 1
  %.not.i = icmp eq i64 %14, 0
  br i1 %.not.i, label %17, label %15

15:                                               ; preds = %RARRAY_AREF.exit
  %16 = ashr i64 %13, 1
  br label %rb_num2long_inline.exit

17:                                               ; preds = %RARRAY_AREF.exit
  %18 = tail call i64 @rb_num2long(i64 noundef %13) #18
  br label %rb_num2long_inline.exit

rb_num2long_inline.exit:                          ; preds = %15, %17
  %.0.i = phi i64 [ %16, %15 ], [ %18, %17 ]
  %19 = icmp eq i64 %1, 4
  br i1 %19, label %rb_long2num_inline.exit, label %20

20:                                               ; preds = %rb_num2long_inline.exit
  %21 = and i64 %1, 1
  %22 = icmp ne i64 %21, 0
  %23 = ashr i64 %1, 1
  %24 = icmp slt i64 %23, %.0.i
  %or.cond = select i1 %22, i1 %24, i1 false
  br i1 %or.cond, label %rb_long2num_inline.exit, label %25

25:                                               ; preds = %20
  %26 = add i64 %.0.i, 4611686018427387904
  %or.cond.i = icmp sgt i64 %26, -1
  br i1 %or.cond.i, label %27, label %30

27:                                               ; preds = %25
  %28 = shl nsw i64 %.0.i, 1
  %29 = or disjoint i64 %28, 1
  br label %rb_long2num_inline.exit

30:                                               ; preds = %25
  %31 = tail call i64 @rb_int2big(i64 noundef %.0.i) #18
  br label %rb_long2num_inline.exit

rb_long2num_inline.exit:                          ; preds = %20, %30, %27, %rb_num2long_inline.exit
  %.0 = phi i64 [ 4, %rb_num2long_inline.exit ], [ %29, %27 ], [ %31, %30 ], [ %1, %20 ]
  ret i64 %.0
}